target datalayout = "e-m:e-p270:32:32-p271:32:32-p272:64:64-i64:64-i128:128-f80:128-n8:16:32:64-S128"
target triple = "x86_64-pc-linux-gnu"

%struct.ssl_st = type { i32, ptr, ptr, ptr, %struct.CRYPTO_REF_COUNT, ptr, %struct.crypto_ex_data_st }
%struct.CRYPTO_REF_COUNT = type { i32 }
%struct.crypto_ex_data_st = type { ptr, ptr }
%struct.ssl_connection_st = type { %struct.ssl_st, ptr, i32, ptr, ptr, ptr, i32, ptr, i32, i32, i32, i32, %struct.OSSL_TIME, %struct.OSSL_TIME, %struct.ossl_statem_st, i32, ptr, ptr, i64, i64, i64, %struct.ossl_quic_tls_callbacks_st, ptr, ptr, %struct.anon, ptr, ptr, ptr, i32, ptr, %struct.ssl_dane_st, ptr, ptr, ptr, ptr, i32, [64 x i8], [64 x i8], [64 x i8], [64 x i8], [64 x i8], [64 x i8], [64 x i8], [64 x i8], [64 x i8], [64 x i8], [64 x i8], [64 x i8], ptr, [64 x i8], i64, i32, i64, [32 x i8], ptr, ptr, ptr, i64, ptr, [32 x i8], i64, i32, ptr, ptr, i32, i32, ptr, ptr, ptr, ptr, ptr, i64, ptr, ptr, i64, i32, i32, i32, i64, i32, i32, i64, i64, i64, %struct.anon.1, ptr, i32, ptr, ptr, ptr, i32, ptr, ptr, ptr, i32, i32, i32, i32, ptr, i64, i32, ptr, %struct.srp_ctx_st, ptr, %struct.record_layer_st, ptr, ptr, ptr, ptr, i64, i32, i32, i32, i64, i64, i64, ptr, ptr, ptr, ptr, ptr, i64, ptr, i64, ptr, i64 }
%struct.OSSL_TIME = type { i64 }
%struct.ossl_statem_st = type { i32, i32, i32, i32, i32, i32, i32, i32, i32, i32, i32, i32, i32, ptr, ptr, ptr, i8 }
%struct.ossl_quic_tls_callbacks_st = type { ptr, ptr, ptr, ptr, ptr, ptr }
%struct.anon = type { i64, [32 x i8], [32 x i8], ptr, ptr, i32, i32, i32, i32, [2 x i8], i32, i32, i32, i32, %struct.anon.0, [64 x i8], i64, [64 x i8], i64, i32, i32, ptr, i64, ptr, i64, i32, i8, i8, i16, ptr, i16 }
%struct.anon.0 = type { [128 x i8], i64, [128 x i8], i64, i64, i32, ptr, ptr, [4 x ptr], [4 x i16], i64, i32, ptr, i64, ptr, i64, ptr, ptr, ptr, i32, i64, ptr, i32, ptr, i64, ptr, i64, ptr, i64, ptr, ptr, ptr, ptr, i64, i64, ptr, ptr, i32, i32, i32, i32 }
%struct.ssl_dane_st = type { ptr, ptr, ptr, ptr, ptr, i32, i32, i32, i64 }
%struct.anon.1 = type { [29 x i8], ptr, ptr, ptr, i32, ptr, i16, i32, %struct.anon.2, i32, i32, i64, ptr, i64, ptr, i64, ptr, i64, ptr, i64, ptr, i64, ptr, ptr, ptr, ptr, ptr, ptr, ptr, i64, ptr, i64, i32, i32, i32, i32, ptr, i64, i32, i8, i32, [4 x i32], i32, i8, i8, i8, i8 }
%struct.anon.2 = type { ptr, ptr, ptr, i64 }
%struct.srp_ctx_st = type { ptr, ptr, ptr, ptr, ptr, ptr, ptr, ptr, ptr, ptr, ptr, ptr, ptr, ptr, i32, i64 }
%struct.record_layer_st = type { ptr, ptr, ptr, ptr, ptr, ptr, ptr, ptr, i64, i32, i64, [4 x i8], i64, i64, i8, ptr, i32, ptr, ptr, ptr, i64, i64, i64, i64, [32 x %struct.tls_record_st] }
%struct.tls_record_st = type { ptr, i32, i8, ptr, ptr, i64, i64, i16, [8 x i8] }

@.str = private unnamed_addr constant [35 x i8] c"../openssl/ssl/statem/statem_lib.c\00", align 1
@__func__.construct_key_exchange_tbs = private unnamed_addr constant [27 x i8] c"construct_key_exchange_tbs\00", align 1

; Function Attrs: nounwind uwtable
define i64 @construct_key_exchange_tbs(ptr noundef %0, ptr noundef %1, ptr noundef %2, i64 noundef %3) #0 {
  %5 = alloca i64, align 8
  %6 = alloca ptr, align 8
  %7 = alloca ptr, align 8
  %8 = alloca ptr, align 8
  %9 = alloca i64, align 8
  %10 = alloca i64, align 8
  %11 = alloca ptr, align 8
  %12 = alloca i32, align 4
  store ptr %0, ptr %6, align 8, !tbaa !18
  store ptr %1, ptr %7, align 8, !tbaa !166
  store ptr %2, ptr %8, align 8, !tbaa !8
  store i64 %3, ptr %9, align 8, !tbaa !76
  call void @llvm.lifetime.start.p0(i64 8, ptr %10) #9
  %13 = load i64, ptr %9, align 8, !tbaa !76
  %14 = add i64 64, %13
  store i64 %14, ptr %10, align 8, !tbaa !76
  call void @llvm.lifetime.start.p0(i64 8, ptr %11) #9
  %15 = load i64, ptr %10, align 8, !tbaa !76
  %16 = call noalias ptr @CRYPTO_malloc(i64 noundef %15, ptr noundef @.str, i32 noundef 2777)
  store ptr %16, ptr %11, align 8, !tbaa !82
  %17 = load ptr, ptr %11, align 8, !tbaa !82
  %18 = icmp eq ptr %17, null
  br i1 %18, label %19, label %21

19:                                               ; preds = %4
  call void @ERR_new()
  call void @ERR_set_debug(ptr noundef @.str, i32 noundef 2780, ptr noundef @__func__.construct_key_exchange_tbs)
  %20 = load ptr, ptr %6, align 8, !tbaa !18
  call void (ptr, i32, i32, ptr, ...) @ossl_statem_fatal(ptr noundef %20, i32 noundef 80, i32 noundef 524303, ptr noundef null)
  store i64 0, ptr %5, align 8
  store i32 1, ptr %12, align 4
  br label %40

21:                                               ; preds = %4
  %22 = load ptr, ptr %11, align 8, !tbaa !82
  %23 = load ptr, ptr %6, align 8, !tbaa !18
  %24 = getelementptr inbounds nuw %struct.ssl_connection_st, ptr %23, i32 0, i32 24
  %25 = getelementptr inbounds nuw %struct.anon, ptr %24, i32 0, i32 2
  %26 = getelementptr inbounds [32 x i8], ptr %25, i64 0, i64 0
  call void @llvm.memcpy.p0.p0.i64(ptr align 1 %22, ptr align 8 %26, i64 32, i1 false)
  %27 = load ptr, ptr %11, align 8, !tbaa !82
  %28 = getelementptr inbounds i8, ptr %27, i64 32
  %29 = load ptr, ptr %6, align 8, !tbaa !18
  %30 = getelementptr inbounds nuw %struct.ssl_connection_st, ptr %29, i32 0, i32 24
  %31 = getelementptr inbounds nuw %struct.anon, ptr %30, i32 0, i32 1
  %32 = getelementptr inbounds [32 x i8], ptr %31, i64 0, i64 0
  call void @llvm.memcpy.p0.p0.i64(ptr align 1 %28, ptr align 8 %32, i64 32, i1 false)
  %33 = load ptr, ptr %11, align 8, !tbaa !82
  %34 = getelementptr inbounds i8, ptr %33, i64 64
  %35 = load ptr, ptr %8, align 8, !tbaa !8
  %36 = load i64, ptr %9, align 8, !tbaa !76
  call void @llvm.memcpy.p0.p0.i64(ptr align 1 %34, ptr align 1 %35, i64 %36, i1 false)
  %37 = load ptr, ptr %11, align 8, !tbaa !82
  %38 = load ptr, ptr %7, align 8, !tbaa !166
  store ptr %37, ptr %38, align 8, !tbaa !82
  %39 = load i64, ptr %10, align 8, !tbaa !76
  store i64 %39, ptr %5, align 8
  store i32 1, ptr %12, align 4
  br label %40

40:                                               ; preds = %21, %19
  call void @llvm.lifetime.end.p0(i64 8, ptr %11) #9
  call void @llvm.lifetime.end.p0(i64 8, ptr %10) #9
  %41 = load i64, ptr %5, align 8
  ret i64 %41
}