; Function Attrs: nounwind uwtable
define noundef i64 @construct_key_exchange_tbs(ptr noundef %0, ptr noundef writeonly captures(none) %1, ptr noundef readonly captures(none) %2, i64 noundef %3) local_unnamed_addr #0 {
  %5 = add i64 %3, 64
  %6 = tail call noalias ptr @CRYPTO_malloc(i64 noundef %5, ptr noundef nonnull @.str, i32 noundef 2777) #11
  %7 = icmp eq ptr %6, null
  br i1 %7, label %8, label %9

8:                                                ; preds = %4
  tail call void @ERR_new() #11
  tail call void @ERR_set_debug(ptr noundef nonnull @.str, i32 noundef 2780, ptr noundef nonnull @__func__.construct_key_exchange_tbs) #11
  tail call void (ptr, i32, i32, ptr, ...) @ossl_statem_fatal(ptr noundef %0, i32 noundef 80, i32 noundef 524303, ptr noundef null) #11
  br label %14

9:                                                ; preds = %4
  %10 = getelementptr inbounds nuw i8, ptr %0, i64 392
  tail call void @llvm.memcpy.p0.p0.i64(ptr noundef nonnull align 1 dereferenceable(32) %6, ptr noundef nonnull align 8 dereferenceable(32) %10, i64 32, i1 false)
  %11 = getelementptr inbounds nuw i8, ptr %6, i64 32
  %12 = getelementptr inbounds nuw i8, ptr %0, i64 360
  tail call void @llvm.memcpy.p0.p0.i64(ptr noundef nonnull align 1 dereferenceable(32) %11, ptr noundef nonnull align 8 dereferenceable(32) %12, i64 32, i1 false)
  %13 = getelementptr inbounds nuw i8, ptr %6, i64 64
  tail call void @llvm.memcpy.p0.p0.i64(ptr nonnull align 1 %13, ptr align 1 %2, i64 %3, i1 false)
  store ptr %6, ptr %1, align 8, !tbaa !78
  br label %14

14:                                               ; preds = %9, %8
  %.0 = phi i64 [ 0, %8 ], [ %5, %9 ]
  ret i64 %.0
}